target datalayout = "e-m:e-p270:32:32-p271:32:32-p272:64:64-i64:64-i128:128-f80:128-n8:16:32:64-S128"
target triple = "x86_64-pc-linux-gnu"

%"class.std::__cxx11::basic_string" = type { %"struct.std::__cxx11::basic_string<char>::_Alloc_hider", i64, %union.anon }
%"struct.std::__cxx11::basic_string<char>::_Alloc_hider" = type { ptr }
%union.anon = type { i64, [8 x i8] }
%class.V3Number = type { %class.V3NumberData, ptr, ptr }
%class.V3NumberData = type <{ %union.anon.0, i32, i8, i8, [2 x i8] }>
%union.anon.0 = type { %"class.std::__cxx11::basic_string" }
%class.V3ErrorCode = type { i8 }

@.str.15 = private unnamed_addr constant [114 x i8] c"generated/home/dtcxzyw/WorkSpace/Projects/compilers/llvm-opt-benchmark/bench/verilator/verilator/src/V3Number.cpp\00", align 1
@.str.51 = private unnamed_addr constant [50 x i8] c"Number operation called with same source and dest\00", align 1
@.str.52 = private unnamed_addr constant [70 x i8] c"Number operation called with non-logic (double or string) argument: '\00", align 1

; Function Attrs: mustprogress nounwind uwtable
define linkonce_odr dso_local noundef zeroext i8 @_ZNK12V3NumberData4typeEv(ptr noundef nonnull align 8 dereferenceable(40) %0) #7 comdat align 2 {
  %2 = alloca ptr, align 8
  store ptr %0, ptr %2, align 8, !tbaa !42
  %3 = load ptr, ptr %2, align 8
  %4 = getelementptr inbounds nuw %class.V3NumberData, ptr %3, i32 0, i32 2
  %5 = load i8, ptr %4, align 4, !tbaa !45
  ret i8 %5
}

; Function Attrs: mustprogress nounwind uwtable
define linkonce_odr dso_local noundef zeroext i8 @_ZNK8V3Number8dataTypeEv(ptr noundef nonnull align 8 dereferenceable(56) %0) #7 comdat align 2 {
  %2 = alloca ptr, align 8
  store ptr %0, ptr %2, align 8, !tbaa !4
  %3 = load ptr, ptr %2, align 8
  %4 = getelementptr inbounds nuw %class.V3Number, ptr %3, i32 0, i32 0
  %5 = call noundef zeroext i8 @_ZNK12V3NumberData4typeEv(ptr noundef nonnull align 8 dereferenceable(40) %4)
  ret i8 %5
}

; Function Attrs: mustprogress nounwind uwtable
define linkonce_odr dso_local void @_ZN11V3ErrorCodeC2ENS_2enE(ptr noundef nonnull align 1 dereferenceable(1) %0, i8 noundef zeroext %1) unnamed_addr #7 comdat align 2 {
  %3 = alloca ptr, align 8
  %4 = alloca i8, align 1
  store ptr %0, ptr %3, align 8, !tbaa !123
  store i8 %1, ptr %4, align 1, !tbaa !125
  %5 = load ptr, ptr %3, align 8
  %6 = getelementptr inbounds nuw %class.V3ErrorCode, ptr %5, i32 0, i32 0
  %7 = load i8, ptr %4, align 1, !tbaa !125
  store i8 %7, ptr %6, align 1, !tbaa !127
  ret void
}

; Function Attrs: mustprogress uwtable
define dso_local noundef nonnull align 8 dereferenceable(56) ptr @_ZN8V3Number5opSelERKS_S1_S1_(ptr noundef nonnull align 8 dereferenceable(56) %0, ptr noundef nonnull align 8 dereferenceable(56) %1, ptr noundef nonnull align 8 dereferenceable(56) %2, ptr noundef nonnull align 8 dereferenceable(56) %3) #4 align 2 {
  %5 = alloca ptr, align 8
  %6 = alloca ptr, align 8
  %7 = alloca ptr, align 8
  %8 = alloca ptr, align 8
  %9 = alloca ptr, align 8
  %10 = alloca %class.V3ErrorCode, align 1
  %11 = alloca %class.V3ErrorCode, align 1
  %12 = alloca %class.V3ErrorCode, align 1
  %13 = alloca %class.V3ErrorCode, align 1
  store ptr %0, ptr %6, align 8, !tbaa !4
  store ptr %1, ptr %7, align 8, !tbaa !4
  store ptr %2, ptr %8, align 8, !tbaa !4
  store ptr %3, ptr %9, align 8, !tbaa !4
  %14 = load ptr, ptr %6, align 8
  br label %15

15:                                               ; preds = %4
  %16 = load ptr, ptr %7, align 8, !tbaa !4
  %17 = icmp ne ptr %14, %16
  br i1 %17, label %18, label %24

18:                                               ; preds = %15
  %19 = load ptr, ptr %8, align 8, !tbaa !4
  %20 = icmp ne ptr %14, %19
  br i1 %20, label %21, label %24

21:                                               ; preds = %18
  %22 = load ptr, ptr %9, align 8, !tbaa !4
  %23 = icmp ne ptr %14, %22
  br label %24

24:                                               ; preds = %21, %18, %15
  %25 = phi i1 [ false, %18 ], [ false, %15 ], [ %23, %21 ]
  %26 = xor i1 %25, true
  %27 = xor i1 %26, true
  %28 = xor i1 %27, true
  %29 = zext i1 %28 to i64
  %30 = call i64 @llvm.expect.i64(i64 %29, i64 0)
  %31 = icmp ne i64 %30, 0
  br i1 %31, label %32, label %38

32:                                               ; preds = %24
  call void @_ZN11V3ErrorCodeC2ENS_2enE(ptr noundef nonnull align 1 dereferenceable(1) %10, i8 noundef zeroext 4)
  %33 = getelementptr inbounds nuw %class.V3ErrorCode, ptr %10, i32 0, i32 0
  %34 = load i8, ptr %33, align 1
  %35 = call noundef nonnull align 8 dereferenceable(112) ptr @_ZN7V3Error19v3errorPrepFileLineB5cxx11E11V3ErrorCodePKci(i8 %34, ptr noundef @.str.15, i32 noundef 2311)
  %36 = call noundef nonnull align 8 dereferenceable(112) ptr @_ZN7V3Error10v3errorStrB5cxx11Ev()
  %37 = call noundef nonnull align 8 dereferenceable(8) ptr @_ZStlsISt11char_traitsIcEERSt13basic_ostreamIcT_ES5_PKc(ptr noundef nonnull align 8 dereferenceable(8) %36, ptr noundef @.str.51)
  call void @_ZNK8V3Number15v3errorEndFatalERKNSt7__cxx1119basic_ostringstreamIcSt11char_traitsIcESaIcEEE(ptr noundef nonnull align 8 dereferenceable(56) %14, ptr noundef nonnull align 8 dereferenceable(112) %37) #25
  unreachable

38:                                               ; preds = %24
  br label %39

39:                                               ; preds = %38
  br label %40

40:                                               ; preds = %39
  %41 = load ptr, ptr %7, align 8, !tbaa !4
  %42 = call noundef zeroext i8 @_ZNK8V3Number8dataTypeEv(ptr noundef nonnull align 8 dereferenceable(56) %41)
  %43 = icmp eq i8 %42, 1
  %44 = xor i1 %43, true
  %45 = xor i1 %44, true
  %46 = xor i1 %45, true
  %47 = zext i1 %46 to i64
  %48 = call i64 @llvm.expect.i64(i64 %47, i64 0)
  %49 = icmp ne i64 %48, 0
  br i1 %49, label %50, label %59

50:                                               ; preds = %40
  call void @_ZN11V3ErrorCodeC2ENS_2enE(ptr noundef nonnull align 1 dereferenceable(1) %11, i8 noundef zeroext 4)
  %51 = getelementptr inbounds nuw %class.V3ErrorCode, ptr %11, i32 0, i32 0
  %52 = load i8, ptr %51, align 1
  %53 = call noundef nonnull align 8 dereferenceable(112) ptr @_ZN7V3Error19v3errorPrepFileLineB5cxx11E11V3ErrorCodePKci(i8 %52, ptr noundef @.str.15, i32 noundef 2312)
  %54 = call noundef nonnull align 8 dereferenceable(112) ptr @_ZN7V3Error10v3errorStrB5cxx11Ev()
  %55 = call noundef nonnull align 8 dereferenceable(8) ptr @_ZStlsISt11char_traitsIcEERSt13basic_ostreamIcT_ES5_PKc(ptr noundef nonnull align 8 dereferenceable(8) %54, ptr noundef @.str.52)
  %56 = load ptr, ptr %7, align 8, !tbaa !4
  %57 = call noundef nonnull align 8 dereferenceable(8) ptr @_ZlsRSoRK8V3Number(ptr noundef nonnull align 8 dereferenceable(8) %55, ptr noundef nonnull align 8 dereferenceable(56) %56)
  %58 = call noundef nonnull align 8 dereferenceable(8) ptr @_ZStlsISt11char_traitsIcEERSt13basic_ostreamIcT_ES5_c(ptr noundef nonnull align 8 dereferenceable(8) %57, i8 noundef signext 34)
  call void @_ZNK8V3Number15v3errorEndFatalERKNSt7__cxx1119basic_ostringstreamIcSt11char_traitsIcESaIcEEE(ptr noundef nonnull align 8 dereferenceable(56) %14, ptr noundef nonnull align 8 dereferenceable(112) %58) #25
  unreachable

59:                                               ; preds = %40
  br label %60

60:                                               ; preds = %59
  br label %61

61:                                               ; preds = %60
  %62 = load ptr, ptr %8, align 8, !tbaa !4
  %63 = call noundef zeroext i8 @_ZNK8V3Number8dataTypeEv(ptr noundef nonnull align 8 dereferenceable(56) %62)
  %64 = icmp eq i8 %63, 1
  %65 = xor i1 %64, true
  %66 = xor i1 %65, true
  %67 = xor i1 %66, true
  %68 = zext i1 %67 to i64
  %69 = call i64 @llvm.expect.i64(i64 %68, i64 0)
  %70 = icmp ne i64 %69, 0
  br i1 %70, label %71, label %80

71:                                               ; preds = %61
  call void @_ZN11V3ErrorCodeC2ENS_2enE(ptr noundef nonnull align 1 dereferenceable(1) %12, i8 noundef zeroext 4)
  %72 = getelementptr inbounds nuw %class.V3ErrorCode, ptr %12, i32 0, i32 0
  %73 = load i8, ptr %72, align 1
  %74 = call noundef nonnull align 8 dereferenceable(112) ptr @_ZN7V3Error19v3errorPrepFileLineB5cxx11E11V3ErrorCodePKci(i8 %73, ptr noundef @.str.15, i32 noundef 2313)
  %75 = call noundef nonnull align 8 dereferenceable(112) ptr @_ZN7V3Error10v3errorStrB5cxx11Ev()
  %76 = call noundef nonnull align 8 dereferenceable(8) ptr @_ZStlsISt11char_traitsIcEERSt13basic_ostreamIcT_ES5_PKc(ptr noundef nonnull align 8 dereferenceable(8) %75, ptr noundef @.str.52)
  %77 = load ptr, ptr %8, align 8, !tbaa !4
  %78 = call noundef nonnull align 8 dereferenceable(8) ptr @_ZlsRSoRK8V3Number(ptr noundef nonnull align 8 dereferenceable(8) %76, ptr noundef nonnull align 8 dereferenceable(56) %77)
  %79 = call noundef nonnull align 8 dereferenceable(8) ptr @_ZStlsISt11char_traitsIcEERSt13basic_ostreamIcT_ES5_c(ptr noundef nonnull align 8 dereferenceable(8) %78, i8 noundef signext 34)
  call void @_ZNK8V3Number15v3errorEndFatalERKNSt7__cxx1119basic_ostringstreamIcSt11char_traitsIcESaIcEEE(ptr noundef nonnull align 8 dereferenceable(56) %14, ptr noundef nonnull align 8 dereferenceable(112) %79) #25
  unreachable

80:                                               ; preds = %61
  br label %81

81:                                               ; preds = %80
  br label %82

82:                                               ; preds = %81
  %83 = load ptr, ptr %9, align 8, !tbaa !4
  %84 = call noundef zeroext i8 @_ZNK8V3Number8dataTypeEv(ptr noundef nonnull align 8 dereferenceable(56) %83)
  %85 = icmp eq i8 %84, 1
  %86 = xor i1 %85, true
  %87 = xor i1 %86, true
  %88 = xor i1 %87, true
  %89 = zext i1 %88 to i64
  %90 = call i64 @llvm.expect.i64(i64 %89, i64 0)
  %91 = icmp ne i64 %90, 0
  br i1 %91, label %92, label %101

92:                                               ; preds = %82
  call void @_ZN11V3ErrorCodeC2ENS_2enE(ptr noundef nonnull align 1 dereferenceable(1) %13, i8 noundef zeroext 4)
  %93 = getelementptr inbounds nuw %class.V3ErrorCode, ptr %13, i32 0, i32 0
  %94 = load i8, ptr %93, align 1
  %95 = call noundef nonnull align 8 dereferenceable(112) ptr @_ZN7V3Error19v3errorPrepFileLineB5cxx11E11V3ErrorCodePKci(i8 %94, ptr noundef @.str.15, i32 noundef 2313)
  %96 = call noundef nonnull align 8 dereferenceable(112) ptr @_ZN7V3Error10v3errorStrB5cxx11Ev()
  %97 = call noundef nonnull align 8 dereferenceable(8) ptr @_ZStlsISt11char_traitsIcEERSt13basic_ostreamIcT_ES5_PKc(ptr noundef nonnull align 8 dereferenceable(8) %96, ptr noundef @.str.52)
  %98 = load ptr, ptr %9, align 8, !tbaa !4
  %99 = call noundef nonnull align 8 dereferenceable(8) ptr @_ZlsRSoRK8V3Number(ptr noundef nonnull align 8 dereferenceable(8) %97, ptr noundef nonnull align 8 dereferenceable(56) %98)
  %100 = call noundef nonnull align 8 dereferenceable(8) ptr @_ZStlsISt11char_traitsIcEERSt13basic_ostreamIcT_ES5_c(ptr noundef nonnull align 8 dereferenceable(8) %99, i8 noundef signext 34)
  call void @_ZNK8V3Number15v3errorEndFatalERKNSt7__cxx1119basic_ostringstreamIcSt11char_traitsIcESaIcEEE(ptr noundef nonnull align 8 dereferenceable(56) %14, ptr noundef nonnull align 8 dereferenceable(112) %100) #25
  unreachable

101:                                              ; preds = %82
  br label %102

102:                                              ; preds = %101
  %103 = load ptr, ptr %9, align 8, !tbaa !4
  %104 = call noundef zeroext i1 @_ZNK8V3Number11isFourStateEv(ptr noundef nonnull align 8 dereferenceable(56) %103)
  br i1 %104, label %108, label %105

105:                                              ; preds = %102
  %106 = load ptr, ptr %8, align 8, !tbaa !4
  %107 = call noundef zeroext i1 @_ZNK8V3Number11isFourStateEv(ptr noundef nonnull align 8 dereferenceable(56) %106)
  br i1 %107, label %108, label %110

108:                                              ; preds = %105, %102
  %109 = call noundef nonnull align 8 dereferenceable(56) ptr @_ZN8V3Number11setAllBitsXEv(ptr noundef nonnull align 8 dereferenceable(56) %14)
  store ptr %109, ptr %5, align 8
  br label %117

110:                                              ; preds = %105
  %111 = load ptr, ptr %7, align 8, !tbaa !4
  %112 = load ptr, ptr %8, align 8, !tbaa !4
  %113 = call noundef i32 @_ZNK8V3Number6toUIntEv(ptr noundef nonnull align 8 dereferenceable(56) %112)
  %114 = load ptr, ptr %9, align 8, !tbaa !4
  %115 = call noundef i32 @_ZNK8V3Number6toUIntEv(ptr noundef nonnull align 8 dereferenceable(56) %114)
  %116 = call noundef nonnull align 8 dereferenceable(56) ptr @_ZN8V3Number5opSelERKS_jj(ptr noundef nonnull align 8 dereferenceable(56) %14, ptr noundef nonnull align 8 dereferenceable(56) %111, i32 noundef %113, i32 noundef %115)
  store ptr %116, ptr %5, align 8
  br label %117

117:                                              ; preds = %110, %108
  %118 = load ptr, ptr %5, align 8
  ret ptr %118
}