; Function Attrs: mustprogress uwtable
define dso_local noundef nonnull align 8 dereferenceable(56) ptr @_ZN8V3Number5opSelERKS_S1_S1_(ptr noundef nonnull returned align 8 dereferenceable(56) %0, ptr noundef nonnull align 8 dereferenceable(56) %1, ptr noundef nonnull align 8 dereferenceable(56) %2, ptr noundef nonnull align 8 dereferenceable(56) %3) local_unnamed_addr #3 align 2 {
  %5 = icmp eq ptr %0, %1
  %6 = icmp eq ptr %0, %2
  %or.cond.not = or i1 %5, %6
  %7 = icmp eq ptr %0, %3
  %spec.select = or i1 %or.cond.not, %7
  br i1 %spec.select, label %8, label %12, !prof !134

8:                                                ; preds = %4
  %9 = tail call noundef nonnull align 8 dereferenceable(112) ptr @_ZN7V3Error19v3errorPrepFileLineB5cxx11E11V3ErrorCodePKci(i8 4, ptr noundef nonnull @.str.15, i32 noundef 2311)
  %10 = tail call noundef nonnull align 8 dereferenceable(112) ptr @_ZN7V3Error10v3errorStrB5cxx11Ev()
  %11 = tail call noundef nonnull align 8 dereferenceable(8) ptr @_ZStlsISt11char_traitsIcEERSt13basic_ostreamIcT_ES5_PKc(ptr noundef nonnull align 8 dereferenceable(8) %10, ptr noundef nonnull @.str.51)
  tail call void @_ZNK8V3Number15v3errorEndFatalERKNSt7__cxx1119basic_ostringstreamIcSt11char_traitsIcESaIcEEE(ptr noundef nonnull align 8 dereferenceable(56) %0, ptr noundef nonnull align 8 dereferenceable(112) %11) #34
  unreachable

12:                                               ; preds = %4
  %13 = getelementptr inbounds nuw i8, ptr %1, i64 36
  %14 = load i8, ptr %13, align 4, !tbaa !40
  %.not = icmp eq i8 %14, 1
  br i1 %.not, label %21, label %15, !prof !41

15:                                               ; preds = %12
  %16 = tail call noundef nonnull align 8 dereferenceable(112) ptr @_ZN7V3Error19v3errorPrepFileLineB5cxx11E11V3ErrorCodePKci(i8 4, ptr noundef nonnull @.str.15, i32 noundef 2312)
  %17 = tail call noundef nonnull align 8 dereferenceable(112) ptr @_ZN7V3Error10v3errorStrB5cxx11Ev()
  %18 = tail call noundef nonnull align 8 dereferenceable(8) ptr @_ZStlsISt11char_traitsIcEERSt13basic_ostreamIcT_ES5_PKc(ptr noundef nonnull align 8 dereferenceable(8) %17, ptr noundef nonnull @.str.52)
  %19 = tail call noundef nonnull align 8 dereferenceable(8) ptr @_ZlsRSoRK8V3Number(ptr noundef nonnull align 8 dereferenceable(8) %18, ptr noundef nonnull align 8 dereferenceable(56) %1)
  %20 = tail call noundef nonnull align 8 dereferenceable(8) ptr @_ZStlsISt11char_traitsIcEERSt13basic_ostreamIcT_ES5_c(ptr noundef nonnull align 8 dereferenceable(8) %19, i8 noundef signext 34)
  tail call void @_ZNK8V3Number15v3errorEndFatalERKNSt7__cxx1119basic_ostringstreamIcSt11char_traitsIcESaIcEEE(ptr noundef nonnull align 8 dereferenceable(56) %0, ptr noundef nonnull align 8 dereferenceable(112) %20) #34
  unreachable

21:                                               ; preds = %12
  %22 = getelementptr inbounds nuw i8, ptr %2, i64 36
  %23 = load i8, ptr %22, align 4, !tbaa !40
  %.not18 = icmp eq i8 %23, 1
  br i1 %.not18, label %30, label %24, !prof !41

24:                                               ; preds = %21
  %25 = tail call noundef nonnull align 8 dereferenceable(112) ptr @_ZN7V3Error19v3errorPrepFileLineB5cxx11E11V3ErrorCodePKci(i8 4, ptr noundef nonnull @.str.15, i32 noundef 2313)
  %26 = tail call noundef nonnull align 8 dereferenceable(112) ptr @_ZN7V3Error10v3errorStrB5cxx11Ev()
  %27 = tail call noundef nonnull align 8 dereferenceable(8) ptr @_ZStlsISt11char_traitsIcEERSt13basic_ostreamIcT_ES5_PKc(ptr noundef nonnull align 8 dereferenceable(8) %26, ptr noundef nonnull @.str.52)
  %28 = tail call noundef nonnull align 8 dereferenceable(8) ptr @_ZlsRSoRK8V3Number(ptr noundef nonnull align 8 dereferenceable(8) %27, ptr noundef nonnull align 8 dereferenceable(56) %2)
  %29 = tail call noundef nonnull align 8 dereferenceable(8) ptr @_ZStlsISt11char_traitsIcEERSt13basic_ostreamIcT_ES5_c(ptr noundef nonnull align 8 dereferenceable(8) %28, i8 noundef signext 34)
  tail call void @_ZNK8V3Number15v3errorEndFatalERKNSt7__cxx1119basic_ostringstreamIcSt11char_traitsIcESaIcEEE(ptr noundef nonnull align 8 dereferenceable(56) %0, ptr noundef nonnull align 8 dereferenceable(112) %29) #34
  unreachable

30:                                               ; preds = %21
  %31 = getelementptr inbounds nuw i8, ptr %3, i64 36
  %32 = load i8, ptr %31, align 4, !tbaa !40
  %.not19 = icmp eq i8 %32, 1
  br i1 %.not19, label %39, label %33, !prof !41

33:                                               ; preds = %30
  %34 = tail call noundef nonnull align 8 dereferenceable(112) ptr @_ZN7V3Error19v3errorPrepFileLineB5cxx11E11V3ErrorCodePKci(i8 4, ptr noundef nonnull @.str.15, i32 noundef 2313)
  %35 = tail call noundef nonnull align 8 dereferenceable(112) ptr @_ZN7V3Error10v3errorStrB5cxx11Ev()
  %36 = tail call noundef nonnull align 8 dereferenceable(8) ptr @_ZStlsISt11char_traitsIcEERSt13basic_ostreamIcT_ES5_PKc(ptr noundef nonnull align 8 dereferenceable(8) %35, ptr noundef nonnull @.str.52)
  %37 = tail call noundef nonnull align 8 dereferenceable(8) ptr @_ZlsRSoRK8V3Number(ptr noundef nonnull align 8 dereferenceable(8) %36, ptr noundef nonnull align 8 dereferenceable(56) %3)
  %38 = tail call noundef nonnull align 8 dereferenceable(8) ptr @_ZStlsISt11char_traitsIcEERSt13basic_ostreamIcT_ES5_c(ptr noundef nonnull align 8 dereferenceable(8) %37, i8 noundef signext 34)
  tail call void @_ZNK8V3Number15v3errorEndFatalERKNSt7__cxx1119basic_ostringstreamIcSt11char_traitsIcESaIcEEE(ptr noundef nonnull align 8 dereferenceable(56) %0, ptr noundef nonnull align 8 dereferenceable(112) %38) #34
  unreachable

39:                                               ; preds = %30
  %40 = tail call noundef zeroext i1 @_ZNK8V3Number11isFourStateEv(ptr noundef nonnull align 8 dereferenceable(56) %3)
  br i1 %40, label %43, label %41

41:                                               ; preds = %39
  %42 = tail call noundef zeroext i1 @_ZNK8V3Number11isFourStateEv(ptr noundef nonnull align 8 dereferenceable(56) %2)
  br i1 %42, label %43, label %45

43:                                               ; preds = %41, %39
  %44 = tail call noundef nonnull align 8 dereferenceable(56) ptr @_ZN8V3Number11setAllBitsXEv(ptr noundef nonnull align 8 dereferenceable(56) %0)
  br label %49

45:                                               ; preds = %41
  %46 = tail call noundef i32 @_ZNK8V3Number6toUIntEv(ptr noundef nonnull align 8 dereferenceable(56) %2)
  %47 = tail call noundef i32 @_ZNK8V3Number6toUIntEv(ptr noundef nonnull align 8 dereferenceable(56) %3)
  %48 = tail call noundef nonnull align 8 dereferenceable(56) ptr @_ZN8V3Number5opSelERKS_jj(ptr noundef nonnull align 8 dereferenceable(56) %0, ptr noundef nonnull align 8 dereferenceable(56) %1, i32 noundef %46, i32 noundef %47)
  br label %49

49:                                               ; preds = %45, %43
  ret ptr %0
}